; Function Attrs: nounwind uwtable
define nonnull ptr @l_Lean_Omega_Constraint_isImpossible___boxed(ptr noundef %0) local_unnamed_addr #1 {
  %2 = getelementptr inbounds nuw i8, ptr %0, i64 8
  %3 = load ptr, ptr %2, align 8, !tbaa !11
  %4 = ptrtoint ptr %3 to i64
  %5 = and i64 %4, 1
  %.not.i.i = icmp eq i64 %5, 0
  br i1 %.not.i.i, label %9, label %6

6:                                                ; preds = %1
  %7 = lshr i64 %4, 1
  %8 = trunc i64 %7 to i32
  br label %lean_obj_tag.exit.i

9:                                                ; preds = %1
  %10 = getelementptr i8, ptr %3, i64 4
  %.val.i.i = load i32, ptr %10, align 4
  %11 = lshr i32 %.val.i.i, 24
  br label %lean_obj_tag.exit.i

lean_obj_tag.exit.i:                              ; preds = %9, %6
  %.0.i.i = phi i32 [ %8, %6 ], [ %11, %9 ]
  %12 = icmp eq i32 %.0.i.i, 0
  br i1 %12, label %l_Lean_Omega_Constraint_isImpossible.exit, label %13

13:                                               ; preds = %lean_obj_tag.exit.i
  %14 = getelementptr inbounds nuw i8, ptr %0, i64 16
  %15 = load ptr, ptr %14, align 8, !tbaa !11
  %16 = ptrtoint ptr %15 to i64
  %17 = and i64 %16, 1
  %.not.i11.i = icmp eq i64 %17, 0
  br i1 %.not.i11.i, label %21, label %18

18:                                               ; preds = %13
  %19 = lshr i64 %16, 1
  %20 = trunc i64 %19 to i32
  br label %lean_obj_tag.exit14.i

21:                                               ; preds = %13
  %22 = getelementptr i8, ptr %15, i64 4
  %.val.i13.i = load i32, ptr %22, align 4
  %23 = lshr i32 %.val.i13.i, 24
  br label %lean_obj_tag.exit14.i

lean_obj_tag.exit14.i:                            ; preds = %21, %18
  %.0.i12.i = phi i32 [ %20, %18 ], [ %23, %21 ]
  %24 = icmp eq i32 %.0.i12.i, 0
  br i1 %24, label %l_Lean_Omega_Constraint_isImpossible.exit, label %25

25:                                               ; preds = %lean_obj_tag.exit14.i
  %26 = getelementptr inbounds nuw i8, ptr %3, i64 8
  %27 = load ptr, ptr %26, align 8, !tbaa !11
  %28 = getelementptr inbounds nuw i8, ptr %15, i64 8
  %29 = load ptr, ptr %28, align 8, !tbaa !11
  %30 = ptrtoint ptr %29 to i64
  %31 = and i64 %30, 1
  %.not.i.i.i = icmp eq i64 %31, 0
  br i1 %.not.i.i.i, label %.critedge.i.i.i, label %32, !prof !4

32:                                               ; preds = %25
  %33 = ptrtoint ptr %27 to i64
  %34 = and i64 %33, 1
  %.not7.i.i.i = icmp eq i64 %34, 0
  br i1 %.not7.i.i.i, label %.critedge.i.i.i, label %35, !prof !4

35:                                               ; preds = %32
  %36 = lshr i64 %30, 1
  %37 = trunc i64 %36 to i32
  %38 = lshr i64 %33, 1
  %39 = trunc i64 %38 to i32
  %40 = icmp slt i32 %37, %39
  br label %lean_int_dec_lt.exit.i

.critedge.i.i.i:                                  ; preds = %32, %25
  %41 = tail call zeroext i1 @lean_int_big_lt(ptr noundef %29, ptr noundef %27) #4
  br label %lean_int_dec_lt.exit.i

lean_int_dec_lt.exit.i:                           ; preds = %.critedge.i.i.i, %35
  %.0.i.i.i = phi i1 [ %40, %35 ], [ %41, %.critedge.i.i.i ]
  %42 = select i1 %.0.i.i.i, i64 3, i64 1
  br label %l_Lean_Omega_Constraint_isImpossible.exit

l_Lean_Omega_Constraint_isImpossible.exit:        ; preds = %lean_obj_tag.exit.i, %lean_obj_tag.exit14.i, %lean_int_dec_lt.exit.i
  %.0.i = phi i64 [ 1, %lean_obj_tag.exit.i ], [ %42, %lean_int_dec_lt.exit.i ], [ 1, %lean_obj_tag.exit14.i ]
  %43 = ptrtoint ptr %0 to i64
  %44 = and i64 %43, 1
  %.not = icmp eq i64 %44, 0
  br i1 %.not, label %45, label %lean_dec.exit

45:                                               ; preds = %l_Lean_Omega_Constraint_isImpossible.exit
  %46 = load i32, ptr %0, align 4, !tbaa !6
  %47 = icmp sgt i32 %46, 1
  br i1 %47, label %48, label %50, !prof !5

48:                                               ; preds = %45
  %49 = add nsw i32 %46, -1
  store i32 %49, ptr %0, align 4, !tbaa !6
  br label %lean_dec.exit

50:                                               ; preds = %45
  %.not.i = icmp eq i32 %46, 0
  br i1 %.not.i, label %lean_dec.exit, label %51

51:                                               ; preds = %50
  tail call void @lean_dec_ref_cold(ptr noundef nonnull %0) #4
  br label %lean_dec.exit

lean_dec.exit:                                    ; preds = %51, %50, %48, %l_Lean_Omega_Constraint_isImpossible.exit
  %52 = inttoptr i64 %.0.i to ptr
  ret ptr %52
}